target datalayout = "e-m:e-p270:32:32-p271:32:32-p272:64:64-i64:64-i128:128-f80:128-n8:16:32:64-S128"
target triple = "x86_64-unknown-linux-gnu"

%"class.Assimp::DefaultIOStream" = type { %"class.Assimp::IOStream", ptr, %"class.std::__cxx11::basic_string", i64 }
%"class.Assimp::IOStream" = type { ptr }
%"class.std::__cxx11::basic_string" = type { %"struct.std::__cxx11::basic_string<char>::_Alloc_hider", i64, %union.anon }
%"struct.std::__cxx11::basic_string<char>::_Alloc_hider" = type { ptr }
%union.anon = type { i64, [8 x i8] }

; Function Attrs: mustprogress uwtable
define internal noundef i64 @_ZN12_GLOBAL__N_112select_ftellILm8EEEmP8_IO_FILE(ptr noundef %file) #5 {
entry:
  %file.addr = alloca ptr, align 8
  store ptr %file, ptr %file.addr, align 8
  %0 = load ptr, ptr %file.addr, align 8
  %call = call i64 @ftell(ptr noundef %0)
  ret i64 %call
}

; Function Attrs: mustprogress uwtable
define noundef i64 @_ZNK6Assimp15DefaultIOStream4TellEv(ptr noundef nonnull align 8 dereferenceable(56) %this) unnamed_addr #5 align 2 {
entry:
  %retval = alloca i64, align 8
  %this.addr = alloca ptr, align 8
  store ptr %this, ptr %this.addr, align 8
  %this1 = load ptr, ptr %this.addr, align 8
  %mFile = getelementptr inbounds %"class.Assimp::DefaultIOStream", ptr %this1, i32 0, i32 1
  %0 = load ptr, ptr %mFile, align 8
  %tobool = icmp ne ptr %0, null
  br i1 %tobool, label %if.end, label %if.then

if.then:                                          ; preds = %entry
  store i64 0, ptr %retval, align 8
  br label %return

if.end:                                           ; preds = %entry
  %mFile2 = getelementptr inbounds %"class.Assimp::DefaultIOStream", ptr %this1, i32 0, i32 1
  %1 = load ptr, ptr %mFile2, align 8
  %call = call noundef i64 @_ZN12_GLOBAL__N_112select_ftellILm8EEEmP8_IO_FILE(ptr noundef %1)
  store i64 %call, ptr %retval, align 8
  br label %return

return:                                           ; preds = %if.end, %if.then
  %2 = load i64, ptr %retval, align 8
  ret i64 %2
}