; Function Attrs: mustprogress nofree nounwind uwtable
define noundef i64 @_ZNK6Assimp15DefaultIOStream4TellEv(ptr nocapture noundef nonnull readonly align 8 dereferenceable(56) %this) unnamed_addr #3 align 2 {
entry:
  %mFile = getelementptr inbounds i8, ptr %this, i64 8
  %0 = load ptr, ptr %mFile, align 8
  %tobool.not = icmp eq ptr %0, null
  br i1 %tobool.not, label %return, label %if.end

if.end:                                           ; preds = %entry
  %call.i = tail call noundef i64 @ftell(ptr noundef nonnull %0)
  br label %return

return:                                           ; preds = %entry, %if.end
  %retval.0 = phi i64 [ %call.i, %if.end ], [ 0, %entry ]
  ret i64 %retval.0
}